; Function Attrs: mustprogress nofree norecurse nosync nounwind memory(readwrite, inaccessiblemem: none) uwtable
define noundef i32 @_ZNK6casadi17GetNonzerosSlice210sp_reverseEPPyS2_PxS1_(ptr nocapture noundef nonnull readonly align 8 dereferenceable(112) %0, ptr nocapture noundef readonly %1, ptr nocapture noundef readonly %2, ptr nocapture readnone %3, ptr nocapture readnone %4) unnamed_addr #6 align 2 {
  %6 = load ptr, ptr %1, align 8
  %7 = getelementptr inbounds i8, ptr %0, i64 88
  %8 = load i64, ptr %7, align 8
  %9 = getelementptr inbounds i8, ptr %0, i64 96
  %10 = load i64, ptr %9, align 8
  %.not18 = icmp eq i64 %8, %10
  br i1 %.not18, label %._crit_edge23, label %.lr.ph22

.lr.ph22:                                         ; preds = %5
  %11 = load ptr, ptr %2, align 8
  %12 = getelementptr inbounds i8, ptr %0, i64 64
  %13 = getelementptr inbounds i8, ptr %0, i64 72
  %14 = getelementptr inbounds i8, ptr %0, i64 80
  %15 = getelementptr inbounds i8, ptr %0, i64 104
  %.pre = load i64, ptr %13, align 8
  br label %16

16:                                               ; preds = %.lr.ph22, %._crit_edge
  %17 = phi i64 [ %10, %.lr.ph22 ], [ %30, %._crit_edge ]
  %18 = phi i64 [ %.pre, %.lr.ph22 ], [ %31, %._crit_edge ]
  %.01220 = phi i64 [ %8, %.lr.ph22 ], [ %33, %._crit_edge ]
  %.01319 = phi ptr [ %11, %.lr.ph22 ], [ %.1.lcssa, %._crit_edge ]
  %19 = load i64, ptr %12, align 8
  %.not1415 = icmp eq i64 %19, %18
  br i1 %.not1415, label %._crit_edge, label %.lr.ph.preheader

.lr.ph.preheader:                                 ; preds = %16
  %20 = add nsw i64 %19, %.01220
  br label %.lr.ph

.lr.ph:                                           ; preds = %.lr.ph.preheader, %.lr.ph
  %.017 = phi i64 [ %27, %.lr.ph ], [ %20, %.lr.ph.preheader ]
  %.116 = phi ptr [ %25, %.lr.ph ], [ %.01319, %.lr.ph.preheader ]
  %21 = load i64, ptr %.116, align 8
  %22 = getelementptr inbounds i64, ptr %6, i64 %.017
  %23 = load i64, ptr %22, align 8
  %24 = or i64 %23, %21
  store i64 %24, ptr %22, align 8
  %25 = getelementptr inbounds i8, ptr %.116, i64 8
  store i64 0, ptr %.116, align 8
  %26 = load i64, ptr %14, align 8
  %27 = add nsw i64 %26, %.017
  %28 = load i64, ptr %13, align 8
  %29 = add nsw i64 %28, %.01220
  %.not14 = icmp eq i64 %27, %29
  br i1 %.not14, label %._crit_edge.loopexit, label %.lr.ph, !llvm.loop !21

._crit_edge.loopexit:                             ; preds = %.lr.ph
  %.pre24 = load i64, ptr %9, align 8
  br label %._crit_edge

._crit_edge:                                      ; preds = %._crit_edge.loopexit, %16
  %30 = phi i64 [ %17, %16 ], [ %.pre24, %._crit_edge.loopexit ]
  %31 = phi i64 [ %18, %16 ], [ %28, %._crit_edge.loopexit ]
  %.1.lcssa = phi ptr [ %.01319, %16 ], [ %25, %._crit_edge.loopexit ]
  %32 = load i64, ptr %15, align 8
  %33 = add nsw i64 %32, %.01220
  %.not = icmp eq i64 %33, %30
  br i1 %.not, label %._crit_edge23, label %16, !llvm.loop !22

._crit_edge23:                                    ; preds = %._crit_edge, %5
  ret i32 0
}